; ModuleID = '32/1757.c'
source_filename = "32/1757.c"
target datalayout = "e-m:e-p270:32:32-p271:32:32-p272:64:64-i64:64-f80:128-n8:16:32:64-S128"
target triple = "x86_64-pc-linux-gnu"

@.str = private unnamed_addr constant [3 x i8] c"%d\00", align 1
@.str.1 = private unnamed_addr constant [2 x i8] c"\0A\00", align 1

; Function Attrs: noinline nounwind uwtable
define dso_local void @main() #0 {
  %1 = alloca i32, align 4
  %2 = alloca [100 x i32], align 16
  %3 = alloca [100 x i8], align 16
  %4 = alloca [100 x i8], align 16
  %5 = alloca [2 x i8], align 1
  %6 = alloca i32, align 4
  %7 = alloca i32, align 4
  %8 = alloca i32, align 4
  %9 = alloca i32, align 4
  %10 = alloca i32, align 4
  %11 = call i32 (i8*, ...) @__isoc99_scanf(i8* getelementptr inbounds ([3 x i8], [3 x i8]* @.str, i64 0, i64 0), i32* %1)
  store i32 0, i32* %6, align 4
  br label %12

12:                                               ; preds = %175, %0
  %13 = load i32, i32* %6, align 4
  %14 = load i32, i32* %1, align 4
  %15 = icmp slt i32 %13, %14
  br i1 %15, label %16, label %178

16:                                               ; preds = %12
  %17 = getelementptr inbounds [2 x i8], [2 x i8]* %5, i64 0, i64 0
  %18 = call i32 (i8*, ...) bitcast (i32 (...)* @gets to i32 (i8*, ...)*)(i8* %17)
  %19 = getelementptr inbounds [100 x i8], [100 x i8]* %3, i64 0, i64 0
  %20 = call i32 (i8*, ...) bitcast (i32 (...)* @gets to i32 (i8*, ...)*)(i8* %19)
  %21 = getelementptr inbounds [100 x i8], [100 x i8]* %4, i64 0, i64 0
  %22 = call i32 (i8*, ...) bitcast (i32 (...)* @gets to i32 (i8*, ...)*)(i8* %21)
  %23 = getelementptr inbounds [100 x i8], [100 x i8]* %3, i64 0, i64 0
  %24 = call i64 @strlen(i8* %23) #3
  %25 = trunc i64 %24 to i32
  store i32 %25, i32* %7, align 4
  %26 = getelementptr inbounds [100 x i8], [100 x i8]* %4, i64 0, i64 0
  %27 = call i64 @strlen(i8* %26) #3
  %28 = trunc i64 %27 to i32
  store i32 %28, i32* %8, align 4
  %29 = load i32, i32* %7, align 4
  %30 = sub nsw i32 %29, 1
  store i32 %30, i32* %9, align 4
  br label %31

31:                                               ; preds = %101, %16
  %32 = load i32, i32* %9, align 4
  %33 = sext i32 %32 to i64
  %34 = getelementptr inbounds [100 x i8], [100 x i8]* %3, i64 0, i64 %33
  %35 = load i8, i8* %34, align 1
  %36 = sext i8 %35 to i32
  %37 = load i32, i32* %9, align 4
  %38 = load i32, i32* %7, align 4
  %39 = sub nsw i32 %37, %38
  %40 = load i32, i32* %8, align 4
  %41 = add nsw i32 %39, %40
  %42 = sext i32 %41 to i64
  %43 = getelementptr inbounds [100 x i8], [100 x i8]* %4, i64 0, i64 %42
  %44 = load i8, i8* %43, align 1
  %45 = sext i8 %44 to i32
  %46 = icmp sge i32 %36, %45
  br i1 %46, label %47, label %66

47:                                               ; preds = %31
  %48 = load i32, i32* %9, align 4
  %49 = sext i32 %48 to i64
  %50 = getelementptr inbounds [100 x i8], [100 x i8]* %3, i64 0, i64 %49
  %51 = load i8, i8* %50, align 1
  %52 = sext i8 %51 to i32
  %53 = load i32, i32* %9, align 4
  %54 = load i32, i32* %7, align 4
  %55 = sub nsw i32 %53, %54
  %56 = load i32, i32* %8, align 4
  %57 = add nsw i32 %55, %56
  %58 = sext i32 %57 to i64
  %59 = getelementptr inbounds [100 x i8], [100 x i8]* %4, i64 0, i64 %58
  %60 = load i8, i8* %59, align 1
  %61 = sext i8 %60 to i32
  %62 = sub nsw i32 %52, %61
  %63 = load i32, i32* %9, align 4
  %64 = sext i32 %63 to i64
  %65 = getelementptr inbounds [100 x i32], [100 x i32]* %2, i64 0, i64 %64
  store i32 %62, i32* %65, align 4
  br label %92

66:                                               ; preds = %31
  %67 = load i32, i32* %9, align 4
  %68 = sext i32 %67 to i64
  %69 = getelementptr inbounds [100 x i8], [100 x i8]* %3, i64 0, i64 %68
  %70 = load i8, i8* %69, align 1
  %71 = sext i8 %70 to i32
  %72 = load i32, i32* %9, align 4
  %73 = load i32, i32* %7, align 4
  %74 = sub nsw i32 %72, %73
  %75 = load i32, i32* %8, align 4
  %76 = add nsw i32 %74, %75
  %77 = sext i32 %76 to i64
  %78 = getelementptr inbounds [100 x i8], [100 x i8]* %4, i64 0, i64 %77
  %79 = load i8, i8* %78, align 1
  %80 = sext i8 %79 to i32
  %81 = sub nsw i32 %71, %80
  %82 = add nsw i32 %81, 10
  %83 = load i32, i32* %9, align 4
  %84 = sext i32 %83 to i64
  %85 = getelementptr inbounds [100 x i32], [100 x i32]* %2, i64 0, i64 %84
  store i32 %82, i32* %85, align 4
  %86 = load i32, i32* %9, align 4
  %87 = sub nsw i32 %86, 1
  %88 = sext i32 %87 to i64
  %89 = getelementptr inbounds [100 x i8], [100 x i8]* %3, i64 0, i64 %88
  %90 = load i8, i8* %89, align 1
  %91 = add i8 %90, -1
  store i8 %91, i8* %89, align 1
  br label %92

92:                                               ; preds = %66, %47
  %93 = load i32, i32* %9, align 4
  %94 = load i32, i32* %7, align 4
  %95 = sub nsw i32 %93, %94
  %96 = load i32, i32* %8, align 4
  %97 = add nsw i32 %95, %96
  %98 = icmp eq i32 %97, 0
  br i1 %98, label %99, label %100

99:                                               ; preds = %92
  br label %104

100:                                              ; preds = %92
  br label %101

101:                                              ; preds = %100
  %102 = load i32, i32* %9, align 4
  %103 = add nsw i32 %102, -1
  store i32 %103, i32* %9, align 4
  br label %31

104:                                              ; preds = %99
  store i32 0, i32* %10, align 4
  br label %105

105:                                              ; preds = %119, %104
  %106 = load i32, i32* %10, align 4
  %107 = load i32, i32* %9, align 4
  %108 = icmp slt i32 %106, %107
  br i1 %108, label %109, label %122

109:                                              ; preds = %105
  %110 = load i32, i32* %10, align 4
  %111 = sext i32 %110 to i64
  %112 = getelementptr inbounds [100 x i8], [100 x i8]* %3, i64 0, i64 %111
  %113 = load i8, i8* %112, align 1
  %114 = sext i8 %113 to i32
  %115 = sub nsw i32 %114, 48
  %116 = load i32, i32* %10, align 4
  %117 = sext i32 %116 to i64
  %118 = getelementptr inbounds [100 x i32], [100 x i32]* %2, i64 0, i64 %117
  store i32 %115, i32* %118, align 4
  br label %119

119:                                              ; preds = %109
  %120 = load i32, i32* %10, align 4
  %121 = add nsw i32 %120, 1
  store i32 %121, i32* %10, align 4
  br label %105

122:                                              ; preds = %105
  %123 = load i32, i32* %9, align 4
  %124 = icmp sgt i32 %123, 0
  br i1 %124, label %125, label %141

125:                                              ; preds = %122
  store i32 0, i32* %10, align 4
  br label %126

126:                                              ; preds = %136, %125
  %127 = load i32, i32* %10, align 4
  %128 = load i32, i32* %7, align 4
  %129 = icmp slt i32 %127, %128
  br i1 %129, label %130, label %139

130:                                              ; preds = %126
  %131 = load i32, i32* %10, align 4
  %132 = sext i32 %131 to i64
  %133 = getelementptr inbounds [100 x i32], [100 x i32]* %2, i64 0, i64 %132
  %134 = load i32, i32* %133, align 4
  %135 = call i32 (i8*, ...) @printf(i8* getelementptr inbounds ([3 x i8], [3 x i8]* @.str, i64 0, i64 0), i32 %134)
  br label %136

136:                                              ; preds = %130
  %137 = load i32, i32* %10, align 4
  %138 = add nsw i32 %137, 1
  store i32 %138, i32* %10, align 4
  br label %126

139:                                              ; preds = %126
  %140 = call i32 (i8*, ...) @printf(i8* getelementptr inbounds ([2 x i8], [2 x i8]* @.str.1, i64 0, i64 0))
  br label %174

141:                                              ; preds = %122
  store i32 0, i32* %10, align 4
  br label %142

142:                                              ; preds = %154, %141
  %143 = load i32, i32* %10, align 4
  %144 = load i32, i32* %7, align 4
  %145 = icmp slt i32 %143, %144
  br i1 %145, label %146, label %157

146:                                              ; preds = %142
  %147 = load i32, i32* %10, align 4
  %148 = sext i32 %147 to i64
  %149 = getelementptr inbounds [100 x i32], [100 x i32]* %2, i64 0, i64 %148
  %150 = load i32, i32* %149, align 4
  %151 = icmp ne i32 %150, 0
  br i1 %151, label %152, label %153

152:                                              ; preds = %146
  br label %157

153:                                              ; preds = %146
  br label %154

154:                                              ; preds = %153
  %155 = load i32, i32* %10, align 4
  %156 = add nsw i32 %155, 1
  store i32 %156, i32* %10, align 4
  br label %142

157:                                              ; preds = %152, %142
  %158 = load i32, i32* %10, align 4
  store i32 %158, i32* %9, align 4
  br label %159

159:                                              ; preds = %169, %157
  %160 = load i32, i32* %9, align 4
  %161 = load i32, i32* %7, align 4
  %162 = icmp slt i32 %160, %161
  br i1 %162, label %163, label %172

163:                                              ; preds = %159
  %164 = load i32, i32* %10, align 4
  %165 = sext i32 %164 to i64
  %166 = getelementptr inbounds [100 x i32], [100 x i32]* %2, i64 0, i64 %165
  %167 = load i32, i32* %166, align 4
  %168 = call i32 (i8*, ...) @printf(i8* getelementptr inbounds ([3 x i8], [3 x i8]* @.str, i64 0, i64 0), i32 %167)
  br label %169

169:                                              ; preds = %163
  %170 = load i32, i32* %9, align 4
  %171 = add nsw i32 %170, 1
  store i32 %171, i32* %9, align 4
  br label %159

172:                                              ; preds = %159
  %173 = call i32 (i8*, ...) @printf(i8* getelementptr inbounds ([2 x i8], [2 x i8]* @.str.1, i64 0, i64 0))
  br label %174

174:                                              ; preds = %172, %139
  br label %175

175:                                              ; preds = %174
  %176 = load i32, i32* %6, align 4
  %177 = add nsw i32 %176, 1
  store i32 %177, i32* %6, align 4
  br label %12

178:                                              ; preds = %12
  ret void
}

declare dso_local i32 @__isoc99_scanf(i8*, ...) #1

declare dso_local i32 @gets(...) #1

; Function Attrs: nounwind readonly
declare dso_local i64 @strlen(i8*) #2

declare dso_local i32 @printf(i8*, ...) #1


!llvm.module.flags = !{!0}
!llvm.ident = !{!1}

!0 = !{i32 1, !"wchar_size", i32 4}
!1 = !{!"clang version 10.0.0-4ubuntu1 "}
